; Function Attrs: nounwind uwtable
define void @Wlc_WriteAddPos(ptr noundef captures(none) initializes((36, 40)) %0) local_unnamed_addr #3 {
  %2 = getelementptr inbounds nuw i8, ptr %0, i64 32
  %3 = getelementptr inbounds nuw i8, ptr %0, i64 36
  store i32 0, ptr %3, align 4, !tbaa !36
  %4 = getelementptr i8, ptr %0, i64 648
  %.val15 = load i32, ptr %4, align 8, !tbaa !24
  %5 = icmp sgt i32 %.val15, 1
  br i1 %5, label %.lr.ph, label %.critedge

.lr.ph:                                           ; preds = %1
  %6 = getelementptr i8, ptr %0, i64 640
  %.phi.trans.insert.i = getelementptr inbounds nuw i8, ptr %0, i64 40
  br label %7

7:                                                ; preds = %.lr.ph, %46
  %.val18 = phi i32 [ %.val15, %.lr.ph ], [ %.val, %46 ]
  %indvars.iv = phi i64 [ 1, %.lr.ph ], [ %indvars.iv.next, %46 ]
  %.val13 = load ptr, ptr %6, align 8, !tbaa !25
  %8 = getelementptr inbounds nuw %struct.Wlc_Obj_t_, ptr %.val13, i64 %indvars.iv
  %9 = load i16, ptr %8, align 8
  %10 = and i16 %9, 63
  switch i16 %10, label %11 [
    i16 1, label %46
    i16 8, label %46
  ]

11:                                               ; preds = %7
  %12 = or i16 %9, 512
  store i16 %12, ptr %8, align 8
  %.val14 = load ptr, ptr %6, align 8, !tbaa !25
  %13 = ptrtoint ptr %8 to i64
  %14 = ptrtoint ptr %.val14 to i64
  %15 = sub i64 %13, %14
  %16 = sdiv exact i64 %15, 24
  %17 = trunc i64 %16 to i32
  %18 = load i32, ptr %3, align 4, !tbaa !36
  %19 = load i32, ptr %2, align 8, !tbaa !37
  %20 = icmp eq i32 %18, %19
  br i1 %20, label %21, label %.Vec_IntGrow.exit10_crit_edge.i

.Vec_IntGrow.exit10_crit_edge.i:                  ; preds = %11
  %.pre.i = load ptr, ptr %.phi.trans.insert.i, align 8, !tbaa !38
  br label %Vec_IntPush.exit

21:                                               ; preds = %11
  %22 = icmp slt i32 %18, 16
  br i1 %22, label %23, label %30

23:                                               ; preds = %21
  %24 = load ptr, ptr %.phi.trans.insert.i, align 8, !tbaa !38
  %.not9.i.i = icmp eq ptr %24, null
  br i1 %.not9.i.i, label %27, label %25

25:                                               ; preds = %23
  %26 = tail call dereferenceable_or_null(64) ptr @realloc(ptr noundef nonnull %24, i64 noundef 64) #15
  br label %Vec_IntGrow.exit.i

27:                                               ; preds = %23
  %28 = tail call noalias dereferenceable_or_null(64) ptr @malloc(i64 noundef 64) #14
  br label %Vec_IntGrow.exit.i

Vec_IntGrow.exit.i:                               ; preds = %27, %25
  %29 = phi ptr [ %26, %25 ], [ %28, %27 ]
  store ptr %29, ptr %.phi.trans.insert.i, align 8, !tbaa !38
  store i32 16, ptr %2, align 8, !tbaa !37
  br label %Vec_IntPush.exit

30:                                               ; preds = %21
  %31 = shl nuw nsw i32 %18, 1
  %32 = load ptr, ptr %.phi.trans.insert.i, align 8, !tbaa !38
  %.not9.i9.i = icmp eq ptr %32, null
  %33 = zext nneg i32 %31 to i64
  %34 = shl nuw nsw i64 %33, 2
  br i1 %.not9.i9.i, label %37, label %35

35:                                               ; preds = %30
  %36 = tail call ptr @realloc(ptr noundef nonnull %32, i64 noundef %34) #15
  br label %39

37:                                               ; preds = %30
  %38 = tail call noalias ptr @malloc(i64 noundef %34) #14
  br label %39

39:                                               ; preds = %37, %35
  %40 = phi ptr [ %36, %35 ], [ %38, %37 ]
  store ptr %40, ptr %.phi.trans.insert.i, align 8, !tbaa !38
  store i32 %31, ptr %2, align 8, !tbaa !37
  br label %Vec_IntPush.exit

Vec_IntPush.exit:                                 ; preds = %.Vec_IntGrow.exit10_crit_edge.i, %Vec_IntGrow.exit.i, %39
  %41 = phi ptr [ %.pre.i, %.Vec_IntGrow.exit10_crit_edge.i ], [ %40, %39 ], [ %29, %Vec_IntGrow.exit.i ]
  %42 = load i32, ptr %3, align 4, !tbaa !36
  %43 = add nsw i32 %42, 1
  store i32 %43, ptr %3, align 4, !tbaa !36
  %44 = sext i32 %42 to i64
  %45 = getelementptr inbounds i32, ptr %41, i64 %44
  store i32 %17, ptr %45, align 4, !tbaa !27
  %.val.pre = load i32, ptr %4, align 8, !tbaa !24
  br label %46

46:                                               ; preds = %7, %7, %Vec_IntPush.exit
  %.val = phi i32 [ %.val18, %7 ], [ %.val18, %7 ], [ %.val.pre, %Vec_IntPush.exit ]
  %indvars.iv.next = add nuw nsw i64 %indvars.iv, 1
  %47 = sext i32 %.val to i64
  %48 = icmp slt i64 %indvars.iv.next, %47
  br i1 %48, label %7, label %.critedge, !llvm.loop !39

.critedge:                                        ; preds = %46, %1
  ret void
}